target datalayout = "e-m:e-p270:32:32-p271:32:32-p272:64:64-i64:64-i128:128-f80:128-n8:16:32:64-S128"
target triple = "x86_64-pc-linux-gnu"

%struct._zend_executor_globals = type { %struct._zval_struct, %struct._zval_struct, [32 x ptr], ptr, ptr, %struct._zend_array, %struct._zend_array, ptr, i32, i8, %struct._zval_struct, i32, ptr, ptr, ptr, ptr, ptr, ptr, i64, ptr, ptr, i32, ptr, i32, i64, i32, i32, i32, i8, i8, %struct.zend_atomic_bool_s, %struct.zend_atomic_bool_s, ptr, i64, ptr, ptr, %struct._zend_array, %struct._zend_array, i32, i8, %struct._zval_struct, %struct._zval_struct, %struct._zend_stack, %struct._zend_stack, %struct._zend_stack, ptr, i32, i32, i64, ptr, ptr, ptr, %struct._zend_objects_store, %struct._zend_lazy_objects_store, ptr, ptr, ptr, [3 x %struct._zend_op], ptr, i8, i8, i64, i32, i32, ptr, [16 x %struct._HashTableIterator], ptr, %union._zend_function, %struct._zend_op, %struct._zend_array, i64, %struct.zend_get_gc_buffer, ptr, ptr, ptr, i64, i8, i32, ptr, ptr, i64, %struct._zend_call_stack, i64, i64, %struct._zend_strtod_state, [6 x ptr] }
%struct.zend_atomic_bool_s = type { i8 }
%struct._zval_struct = type { %union._zend_value, %union.anon, %union.anon.2 }
%union._zend_value = type { i64 }
%union.anon = type { i32 }
%union.anon.2 = type { i32 }
%struct._zend_stack = type { i32, i32, i32, ptr }
%struct._zend_objects_store = type { ptr, i32, i32, i32 }
%struct._zend_lazy_objects_store = type { %struct._zend_array }
%struct._HashTableIterator = type { ptr, i32, i32 }
%union._zend_function = type { %struct._zend_op_array }
%struct._zend_op_array = type { i8, [3 x i8], i32, ptr, ptr, ptr, i32, i32, ptr, ptr, ptr, ptr, i32, ptr, i32, i32, i32, ptr, ptr, ptr, ptr, ptr, i32, i32, ptr, ptr, ptr, i32, i32, i32, i32, ptr, ptr, [6 x ptr] }
%struct._zend_op = type { ptr, %union._znode_op, %union._znode_op, %union._znode_op, i32, i32, i8, i8, i8, i8 }
%union._znode_op = type { i32 }
%struct._zend_array = type { %struct._zend_refcounted_h, %union.anon.4, i32, %union.anon.6, i32, i32, i32, i32, i64, ptr }
%struct._zend_refcounted_h = type { i32, %union.anon.3 }
%union.anon.3 = type { i32 }
%union.anon.4 = type { i32 }
%union.anon.6 = type { ptr }
%struct.zend_get_gc_buffer = type { ptr, ptr, ptr }
%struct._zend_call_stack = type { ptr, i64 }
%struct._zend_strtod_state = type { [8 x ptr], ptr, ptr }
%struct._zend_phar_globals = type { %struct._zend_array, %struct._zend_array, ptr, %struct._zend_array, i32, ptr, i8, i8, i8, i8, i8, i8, i8, i8, i8, i8, i8, i8, ptr, ptr, ptr, ptr, ptr, ptr, ptr, ptr, ptr, ptr, ptr, ptr, ptr, ptr, ptr, ptr, ptr, ptr, ptr, ptr, ptr, ptr, ptr, i32, i8, ptr, i32, ptr, i32, ptr, i32, ptr, %struct._zend_array }
%struct._zend_object_handlers = type { i32, ptr, ptr, ptr, ptr, ptr, ptr, ptr, ptr, ptr, ptr, ptr, ptr, ptr, ptr, ptr, ptr, ptr, ptr, ptr, ptr, ptr, ptr, ptr, ptr }
%struct._zend_execute_data = type { ptr, ptr, ptr, ptr, %struct._zval_struct, ptr, ptr, ptr, ptr }
%struct._phar_archive_data = type { ptr, i32, ptr, i32, ptr, i32, [12 x i8], i64, %struct._zend_array, %struct._zend_array, %struct._zend_array, i32, i32, i32, ptr, ptr, i32, i32, i32, ptr, %struct._phar_metadata_tracker, i32, i16 }
%struct._phar_metadata_tracker = type { %struct._zval_struct, ptr }
%struct._zend_object = type { %struct._zend_refcounted_h, i32, i32, ptr, ptr, ptr, [1 x %struct._zval_struct] }

@executor_globals = external global %struct._zend_executor_globals, align 8
@phar_globals = external global %struct._zend_phar_globals, align 8
@spl_ce_BadMethodCallException = external global ptr, align 8
@spl_ce_UnexpectedValueException = external global ptr, align 8
@.str.72 = private unnamed_addr constant [51 x i8] c"Cannot call method on an uninitialized Phar object\00", align 1
@.str.119 = private unnamed_addr constant [4 x i8] c"|s!\00", align 1
@.str.120 = private unnamed_addr constant [50 x i8] c"Cannot decompress phar archive, phar is read-only\00", align 1
@.str.121 = private unnamed_addr constant [68 x i8] c"Cannot decompress zip-based archives with whole-archive compression\00", align 1

; Function Attrs: nounwind uwtable
define hidden void @zim_Phar_decompress(ptr noundef %0, ptr noundef %1) #0 {
  %3 = alloca ptr, align 8
  %4 = alloca ptr, align 8
  %5 = alloca ptr, align 8
  %6 = alloca i64, align 8
  %7 = alloca ptr, align 8
  %8 = alloca i32, align 4
  %9 = alloca ptr, align 8
  %10 = alloca ptr, align 8
  %11 = alloca ptr, align 8
  store ptr %0, ptr %3, align 8, !tbaa !4
  store ptr %1, ptr %4, align 8, !tbaa !9
  call void @llvm.lifetime.start.p0(i64 8, ptr %5) #17
  store ptr null, ptr %5, align 8, !tbaa !49
  call void @llvm.lifetime.start.p0(i64 8, ptr %6) #17
  store i64 0, ptr %6, align 8, !tbaa !52
  call void @llvm.lifetime.start.p0(i64 8, ptr %7) #17
  %12 = load ptr, ptr %3, align 8, !tbaa !4
  %13 = getelementptr inbounds nuw %struct._zend_execute_data, ptr %12, i32 0, i32 4
  %14 = getelementptr inbounds nuw %struct._zval_struct, ptr %13, i32 0, i32 2
  %15 = load i32, ptr %14, align 4, !tbaa !13
  %16 = call i32 (i32, ptr, ...) @zend_parse_parameters(i32 noundef %15, ptr noundef @.str.119, ptr noundef %5, ptr noundef %6)
  %17 = icmp eq i32 %16, -1
  br i1 %17, label %18, label %24

18:                                               ; preds = %2
  br label %19

19:                                               ; preds = %18
  %20 = load ptr, ptr getelementptr inbounds nuw (%struct._zend_executor_globals, ptr @executor_globals, i32 0, i32 54), align 8, !tbaa !14
  %21 = icmp ne ptr %20, null
  call void @llvm.assume(i1 %21)
  store i32 1, ptr %8, align 4
  br label %134

22:                                               ; No predecessors!
  br label %23

23:                                               ; preds = %22
  br label %24

24:                                               ; preds = %23, %2
  call void @llvm.lifetime.start.p0(i64 8, ptr %9) #17
  %25 = load ptr, ptr %3, align 8, !tbaa !4
  %26 = getelementptr inbounds nuw %struct._zend_execute_data, ptr %25, i32 0, i32 4
  store ptr %26, ptr %9, align 8, !tbaa !9
  call void @llvm.lifetime.start.p0(i64 8, ptr %10) #17
  %27 = load ptr, ptr %9, align 8, !tbaa !9
  %28 = getelementptr inbounds nuw %struct._zval_struct, ptr %27, i32 0, i32 0
  %29 = load ptr, ptr %28, align 8, !tbaa !13
  %30 = load ptr, ptr %9, align 8, !tbaa !9
  %31 = getelementptr inbounds nuw %struct._zval_struct, ptr %30, i32 0, i32 0
  %32 = load ptr, ptr %31, align 8, !tbaa !13
  %33 = getelementptr inbounds nuw %struct._zend_object, ptr %32, i32 0, i32 4
  %34 = load ptr, ptr %33, align 8, !tbaa !118
  %35 = getelementptr inbounds nuw %struct._zend_object_handlers, ptr %34, i32 0, i32 0
  %36 = load i32, ptr %35, align 8, !tbaa !121
  %37 = sext i32 %36 to i64
  %38 = sub i64 0, %37
  %39 = getelementptr inbounds i8, ptr %29, i64 %38
  store ptr %39, ptr %10, align 8, !tbaa !123
  %40 = load ptr, ptr %10, align 8, !tbaa !123
  %41 = load ptr, ptr %40, align 8, !tbaa !13
  %42 = icmp ne ptr %41, null
  br i1 %42, label %51, label %43

43:                                               ; preds = %24
  %44 = load ptr, ptr @spl_ce_BadMethodCallException, align 8, !tbaa !53
  %45 = call ptr (ptr, i64, ptr, ...) @zend_throw_exception_ex(ptr noundef %44, i64 noundef 0, ptr noundef @.str.72)
  br label %46

46:                                               ; preds = %43
  %47 = load ptr, ptr getelementptr inbounds nuw (%struct._zend_executor_globals, ptr @executor_globals, i32 0, i32 54), align 8, !tbaa !14
  %48 = icmp ne ptr %47, null
  call void @llvm.assume(i1 %48)
  store i32 1, ptr %8, align 4
  br label %133

49:                                               ; No predecessors!
  br label %50

50:                                               ; preds = %49
  br label %51

51:                                               ; preds = %50, %24
  %52 = load i8, ptr getelementptr inbounds nuw (%struct._zend_phar_globals, ptr @phar_globals, i32 0, i32 6), align 8, !tbaa !117, !range !50, !noundef !51
  %53 = trunc i8 %52 to i1
  br i1 %53, label %54, label %71

54:                                               ; preds = %51
  %55 = load ptr, ptr %10, align 8, !tbaa !123
  %56 = load ptr, ptr %55, align 8, !tbaa !13
  %57 = getelementptr inbounds nuw %struct._phar_archive_data, ptr %56, i32 0, i32 22
  %58 = load i16, ptr %57, align 4
  %59 = lshr i16 %58, 7
  %60 = and i16 %59, 1
  %61 = zext i16 %60 to i32
  %62 = icmp ne i32 %61, 0
  br i1 %62, label %71, label %63

63:                                               ; preds = %54
  %64 = load ptr, ptr @spl_ce_UnexpectedValueException, align 8, !tbaa !53
  %65 = call ptr (ptr, i64, ptr, ...) @zend_throw_exception_ex(ptr noundef %64, i64 noundef 0, ptr noundef @.str.120)
  br label %66

66:                                               ; preds = %63
  %67 = load ptr, ptr getelementptr inbounds nuw (%struct._zend_executor_globals, ptr @executor_globals, i32 0, i32 54), align 8, !tbaa !14
  %68 = icmp ne ptr %67, null
  call void @llvm.assume(i1 %68)
  store i32 1, ptr %8, align 4
  br label %133

69:                                               ; No predecessors!
  br label %70

70:                                               ; preds = %69
  br label %71

71:                                               ; preds = %70, %54, %51
  %72 = load ptr, ptr %10, align 8, !tbaa !123
  %73 = load ptr, ptr %72, align 8, !tbaa !13
  %74 = getelementptr inbounds nuw %struct._phar_archive_data, ptr %73, i32 0, i32 22
  %75 = load i16, ptr %74, align 4
  %76 = lshr i16 %75, 5
  %77 = and i16 %76, 1
  %78 = zext i16 %77 to i32
  %79 = icmp ne i32 %78, 0
  br i1 %79, label %80, label %88

80:                                               ; preds = %71
  %81 = load ptr, ptr @spl_ce_UnexpectedValueException, align 8, !tbaa !53
  %82 = call ptr (ptr, i64, ptr, ...) @zend_throw_exception_ex(ptr noundef %81, i64 noundef 0, ptr noundef @.str.121)
  br label %83

83:                                               ; preds = %80
  %84 = load ptr, ptr getelementptr inbounds nuw (%struct._zend_executor_globals, ptr @executor_globals, i32 0, i32 54), align 8, !tbaa !14
  %85 = icmp ne ptr %84, null
  call void @llvm.assume(i1 %85)
  store i32 1, ptr %8, align 4
  br label %133

86:                                               ; No predecessors!
  br label %87

87:                                               ; preds = %86
  br label %88

88:                                               ; preds = %87, %71
  %89 = load ptr, ptr %10, align 8, !tbaa !123
  %90 = load ptr, ptr %89, align 8, !tbaa !13
  %91 = getelementptr inbounds nuw %struct._phar_archive_data, ptr %90, i32 0, i32 22
  %92 = load i16, ptr %91, align 4
  %93 = lshr i16 %92, 6
  %94 = and i16 %93, 1
  %95 = zext i16 %94 to i32
  %96 = icmp ne i32 %95, 0
  br i1 %96, label %97, label %102

97:                                               ; preds = %88
  %98 = load ptr, ptr %10, align 8, !tbaa !123
  %99 = load ptr, ptr %98, align 8, !tbaa !13
  %100 = load ptr, ptr %5, align 8, !tbaa !49
  %101 = call ptr @phar_convert_to_other(ptr noundef %99, i32 noundef 2, ptr noundef %100, i32 noundef 0)
  store ptr %101, ptr %7, align 8, !tbaa !152
  br label %107

102:                                              ; preds = %88
  %103 = load ptr, ptr %10, align 8, !tbaa !123
  %104 = load ptr, ptr %103, align 8, !tbaa !13
  %105 = load ptr, ptr %5, align 8, !tbaa !49
  %106 = call ptr @phar_convert_to_other(ptr noundef %104, i32 noundef 1, ptr noundef %105, i32 noundef 0)
  store ptr %106, ptr %7, align 8, !tbaa !152
  br label %107

107:                                              ; preds = %102, %97
  %108 = load ptr, ptr %7, align 8, !tbaa !152
  %109 = icmp ne ptr %108, null
  br i1 %109, label %110, label %123

110:                                              ; preds = %107
  br label %111

111:                                              ; preds = %110
  br label %112

112:                                              ; preds = %111
  call void @llvm.lifetime.start.p0(i64 8, ptr %11) #17
  %113 = load ptr, ptr %4, align 8, !tbaa !9
  store ptr %113, ptr %11, align 8, !tbaa !9
  %114 = load ptr, ptr %7, align 8, !tbaa !152
  %115 = load ptr, ptr %11, align 8, !tbaa !9
  %116 = getelementptr inbounds nuw %struct._zval_struct, ptr %115, i32 0, i32 0
  store ptr %114, ptr %116, align 8, !tbaa !13
  %117 = load ptr, ptr %11, align 8, !tbaa !9
  %118 = getelementptr inbounds nuw %struct._zval_struct, ptr %117, i32 0, i32 1
  store i32 776, ptr %118, align 8, !tbaa !13
  call void @llvm.lifetime.end.p0(i64 8, ptr %11) #17
  br label %119

119:                                              ; preds = %112
  br label %120

120:                                              ; preds = %119
  store i32 1, ptr %8, align 4
  br label %133

121:                                              ; No predecessors!
  br label %122

122:                                              ; preds = %121
  br label %132

123:                                              ; preds = %107
  br label %124

124:                                              ; preds = %123
  br label %125

125:                                              ; preds = %124
  %126 = load ptr, ptr %4, align 8, !tbaa !9
  %127 = getelementptr inbounds nuw %struct._zval_struct, ptr %126, i32 0, i32 1
  store i32 1, ptr %127, align 8, !tbaa !13
  br label %128

128:                                              ; preds = %125
  br label %129

129:                                              ; preds = %128
  store i32 1, ptr %8, align 4
  br label %133

130:                                              ; No predecessors!
  br label %131

131:                                              ; preds = %130
  br label %132

132:                                              ; preds = %131, %122
  store i32 0, ptr %8, align 4
  br label %133

133:                                              ; preds = %132, %129, %120, %83, %66, %46
  call void @llvm.lifetime.end.p0(i64 8, ptr %10) #17
  call void @llvm.lifetime.end.p0(i64 8, ptr %9) #17
  br label %134

134:                                              ; preds = %133, %19
  call void @llvm.lifetime.end.p0(i64 8, ptr %7) #17
  call void @llvm.lifetime.end.p0(i64 8, ptr %6) #17
  call void @llvm.lifetime.end.p0(i64 8, ptr %5) #17
  %135 = load i32, ptr %8, align 4
  switch i32 %135, label %137 [
    i32 0, label %136
    i32 1, label %136
  ]

136:                                              ; preds = %134, %134
  ret void

137:                                              ; preds = %134
  unreachable
}