; Function Attrs: nounwind uwtable
define hidden void @zim_Phar_decompress(ptr noundef readonly captures(none) %0, ptr noundef writeonly captures(none) %1) #0 {
  %3 = alloca ptr, align 8
  %4 = alloca i64, align 8
  call void @llvm.lifetime.start.p0(i64 8, ptr nonnull %3) #20
  store ptr null, ptr %3, align 8, !tbaa !47
  call void @llvm.lifetime.start.p0(i64 8, ptr nonnull %4) #20
  store i64 0, ptr %4, align 8, !tbaa !50
  %5 = getelementptr inbounds nuw i8, ptr %0, i64 44
  %6 = load i32, ptr %5, align 4, !tbaa !8
  %7 = call i32 (i32, ptr, ...) @zend_parse_parameters(i32 noundef %6, ptr noundef nonnull @.str.119, ptr noundef nonnull %3, ptr noundef nonnull %4) #20
  %8 = icmp eq i32 %7, -1
  br i1 %8, label %9, label %12

9:                                                ; preds = %2
  %10 = load ptr, ptr getelementptr inbounds nuw (i8, ptr @executor_globals, i64 960), align 8, !tbaa !9
  %11 = icmp ne ptr %10, null
  call void @llvm.assume(i1 %11)
  br label %52

12:                                               ; preds = %2
  %13 = getelementptr inbounds nuw i8, ptr %0, i64 32
  %14 = load ptr, ptr %13, align 8, !tbaa !8
  %15 = getelementptr inbounds nuw i8, ptr %14, i64 24
  %16 = load ptr, ptr %15, align 8, !tbaa !109
  %17 = load i32, ptr %16, align 8, !tbaa !112
  %18 = sext i32 %17 to i64
  %19 = sub nsw i64 0, %18
  %20 = getelementptr inbounds i8, ptr %14, i64 %19
  %21 = load ptr, ptr %20, align 8, !tbaa !8
  %.not = icmp eq ptr %21, null
  br i1 %.not, label %22, label %27

22:                                               ; preds = %12
  %23 = load ptr, ptr @spl_ce_BadMethodCallException, align 8, !tbaa !54
  %24 = call ptr (ptr, i64, ptr, ...) @zend_throw_exception_ex(ptr noundef %23, i64 noundef 0, ptr noundef nonnull @.str.72) #20
  %25 = load ptr, ptr getelementptr inbounds nuw (i8, ptr @executor_globals, i64 960), align 8, !tbaa !9
  %26 = icmp ne ptr %25, null
  call void @llvm.assume(i1 %26)
  br label %52

27:                                               ; preds = %12
  %28 = load i8, ptr getelementptr inbounds nuw (i8, ptr @phar_globals, i64 192), align 8, !tbaa !108, !range !48, !noundef !49
  %29 = trunc nuw i8 %28 to i1
  %30 = getelementptr inbounds nuw i8, ptr %21, i64 316
  %31 = load i16, ptr %30, align 4
  %32 = and i16 %31, 128
  %.not17 = icmp eq i16 %32, 0
  %or.cond = select i1 %29, i1 %.not17, i1 false
  br i1 %or.cond, label %33, label %._crit_edge

33:                                               ; preds = %27
  %34 = load ptr, ptr @spl_ce_UnexpectedValueException, align 8, !tbaa !54
  %35 = call ptr (ptr, i64, ptr, ...) @zend_throw_exception_ex(ptr noundef %34, i64 noundef 0, ptr noundef nonnull @.str.120) #20
  %36 = load ptr, ptr getelementptr inbounds nuw (i8, ptr @executor_globals, i64 960), align 8, !tbaa !9
  %37 = icmp ne ptr %36, null
  call void @llvm.assume(i1 %37)
  br label %52

._crit_edge:                                      ; preds = %27
  %38 = and i16 %31, 32
  %.not18 = icmp eq i16 %38, 0
  br i1 %.not18, label %44, label %39

39:                                               ; preds = %._crit_edge
  %40 = load ptr, ptr @spl_ce_UnexpectedValueException, align 8, !tbaa !54
  %41 = call ptr (ptr, i64, ptr, ...) @zend_throw_exception_ex(ptr noundef %40, i64 noundef 0, ptr noundef nonnull @.str.121) #20
  %42 = load ptr, ptr getelementptr inbounds nuw (i8, ptr @executor_globals, i64 960), align 8, !tbaa !9
  %43 = icmp ne ptr %42, null
  call void @llvm.assume(i1 %43)
  br label %52

44:                                               ; preds = %._crit_edge
  %45 = and i16 %31, 64
  %.not19 = icmp eq i16 %45, 0
  %46 = load ptr, ptr %3, align 8, !tbaa !47
  %. = select i1 %.not19, i32 1, i32 2
  %47 = call fastcc ptr @phar_convert_to_other(ptr noundef nonnull %21, i32 noundef %., ptr noundef %46, i32 noundef 0)
  %.not20 = icmp eq ptr %47, null
  br i1 %.not20, label %50, label %48

48:                                               ; preds = %44
  store ptr %47, ptr %1, align 8, !tbaa !8
  %49 = getelementptr inbounds nuw i8, ptr %1, i64 8
  store i32 776, ptr %49, align 8, !tbaa !8
  br label %52

50:                                               ; preds = %44
  %51 = getelementptr inbounds nuw i8, ptr %1, i64 8
  store i32 1, ptr %51, align 8, !tbaa !8
  br label %52

52:                                               ; preds = %22, %33, %39, %48, %50, %9
  call void @llvm.lifetime.end.p0(i64 8, ptr nonnull %4) #20
  call void @llvm.lifetime.end.p0(i64 8, ptr nonnull %3) #20
  ret void
}